target datalayout = "e-m:e-p270:32:32-p271:32:32-p272:64:64-i64:64-i128:128-f80:128-n8:16:32:64-S128"
target triple = "x86_64-unknown-linux-gnu"

%class.rational = type { %class.mpq }
%class.mpq = type { %class.mpz, %class.mpz }
%class.mpz = type { i32, i8, ptr }
%"class.nla::intervals" = type { %class.dep_intervals, ptr }
%class.dep_intervals = type { ptr, %class.mpq_manager, %"class.dep_intervals::im_config", %class.interval_manager }
%class.mpq_manager = type { %class.mpz_manager, %class.mpz, %class.mpz, %class.mpz, %class.mpz, %class.mpq, %class.mpq }
%class.mpz_manager = type { %class.small_object_allocator, %"class.std::recursive_mutex", %class.mpn_manager, i32, %class.mpz, %class.mpz }
%class.small_object_allocator = type { [32 x ptr], [32 x ptr], i64 }
%"class.std::recursive_mutex" = type { %"class.std::__recursive_mutex_base" }
%"class.std::__recursive_mutex_base" = type { %union.pthread_mutex_t }
%union.pthread_mutex_t = type { %struct.__pthread_mutex_s }
%struct.__pthread_mutex_s = type { i32, i32, i32, i32, i32, i16, i16, %struct.__pthread_internal_list }
%struct.__pthread_internal_list = type { ptr, ptr }
%class.mpn_manager = type { i8 }
%"class.dep_intervals::im_config" = type { ptr, ptr }
%class.interval_manager = type { ptr, %"class.dep_intervals::im_config", %class.mpq, %class.mpq, %class.mpq, %class.mpq, %class.mpq, %class.mpq, %class.mpq, %class.mpq, %class.mpq, i32, %"struct.dep_intervals::im_config::interval", %"struct.dep_intervals::im_config::interval", %"struct.dep_intervals::im_config::interval", %"struct.dep_intervals::im_config::interval" }
%"struct.dep_intervals::im_config::interval" = type { %class.mpq, %class.mpq, i8, ptr, ptr }
%"class.nla::core" = type { i32, i32, %"class.nla::var_eqs", ptr, ptr, %struct.smt_params_helper, %"class.std::function", %class.vector.10, %class.vector.11, %class.vector.12, %class.vector.13, %class.indexed_uint_set, %class.indexed_uint_set, %"struct.nla::tangents", %"struct.nla::basics", %"class.nla::order", %"class.nla::monotone", %"class.nla::powers", %"class.nla::divisions", %"class.nla::intervals", %"class.nla::monomial_bounds", i32, i8, [3 x i8], %"class.nla::horner", %"class.nla::grobner", %"class.nla::emonics", %class.svector, %class.indexed_uint_set, %class.reslimit, i8, %"class.nra::solver", i8, i32, ptr }
%"class.nla::var_eqs" = type { ptr, %class.union_find, %"class.lp::incremental_vector", %class.vector.2, %class.trail_stack, %class.svector.4, %class.svector.6, %class.svector, %class.svector.8, %"struct.nla::var_eqs<nla::emonics>::stats" }
%class.union_find = type { ptr, ptr, %class.svector, %class.svector, %class.svector, %"class.union_find<nla::var_eqs<nla::emonics>>::mk_var_trail" }
%"class.union_find<nla::var_eqs<nla::emonics>>::mk_var_trail" = type { %class.trail, ptr }
%class.trail = type { ptr }
%"class.lp::incremental_vector" = type { %class.vector.0, %class.vector.1 }
%class.vector.0 = type { ptr }
%class.vector.1 = type { ptr }
%class.vector.2 = type { ptr }
%class.trail_stack = type { %class.ptr_vector, %class.svector, %class.region }
%class.ptr_vector = type { %class.vector.3 }
%class.vector.3 = type { ptr }
%class.region = type { ptr, ptr, ptr, ptr, ptr }
%class.svector.4 = type { %class.vector.5 }
%class.vector.5 = type { ptr }
%class.svector.6 = type { %class.vector.7 }
%class.vector.7 = type { ptr }
%class.svector.8 = type { %class.vector.9 }
%class.vector.9 = type { ptr }
%"struct.nla::var_eqs<nla::emonics>::stats" = type { i32, i32 }
%struct.smt_params_helper = type { ptr, %class.params_ref }
%class.params_ref = type { ptr }
%"class.std::function" = type { %"class.std::_Function_base", ptr }
%"class.std::_Function_base" = type { %"union.std::_Any_data", ptr }
%"union.std::_Any_data" = type { %"union.std::_Nocopy_types" }
%"union.std::_Nocopy_types" = type { { i64, i64 } }
%class.vector.10 = type { ptr }
%class.vector.11 = type { ptr }
%class.vector.12 = type { ptr }
%class.vector.13 = type { ptr }
%"struct.nla::tangents" = type { %"struct.nla::common" }
%"struct.nla::common" = type { ptr, %"class.nla::nex_creator" }
%"class.nla::nex_creator" = type { %class.ptr_vector.14, %"class.std::unordered_map", %"class.std::unordered_map.18", %class.svector, %"class.nla::nex_creator::mul_factory" }
%class.ptr_vector.14 = type { %class.vector.15 }
%class.vector.15 = type { ptr }
%"class.std::unordered_map" = type { %"class.std::_Hashtable" }
%"class.std::_Hashtable" = type { ptr, i64, %"struct.std::__detail::_Hash_node_base", i64, %"struct.std::__detail::_Prime_rehash_policy", ptr }
%"struct.std::__detail::_Hash_node_base" = type { ptr }
%"struct.std::__detail::_Prime_rehash_policy" = type { float, i64 }
%"class.std::unordered_map.18" = type { %"class.std::_Hashtable.19" }
%"class.std::_Hashtable.19" = type { ptr, i64, %"struct.std::__detail::_Hash_node_base", i64, %"struct.std::__detail::_Prime_rehash_policy", ptr }
%"class.nla::nex_creator::mul_factory" = type { ptr, %class.rational, %class.vector.32 }
%class.vector.32 = type { ptr }
%"struct.nla::basics" = type { %"struct.nla::common" }
%"class.nla::order" = type { %"struct.nla::common" }
%"class.nla::monotone" = type { %"struct.nla::common" }
%"class.nla::powers" = type { ptr }
%"class.nla::divisions" = type { ptr, %class.vector.33, %class.vector.33, %class.vector.33 }
%class.vector.33 = type { ptr }
%"class.nla::monomial_bounds" = type { %"struct.nla::common", ptr }
%"class.nla::horner" = type <{ %"struct.nla::common", %"class.nla::nex_creator::sum_factory", i32, [4 x i8] }>
%"class.nla::nex_creator::sum_factory" = type { ptr, %class.ptr_vector.14 }
%"class.nla::grobner" = type { %"struct.nla::common", %"class.dd::pdd_manager", %"class.dd::solver", ptr, %class.indexed_uint_set, i32, i32, i32, i8, %"class.std::unordered_map.53" }
%"class.dd::pdd_manager" = type { %class.svector.34, %class.vector.36, %class.ptr_hashtable, %class.hashtable, %class.hashtable.39, %class.map, %class.svector, ptr, %class.svector, %class.svector, %class.svector, %class.svector, %class.small_object_allocator, %class.svector, i32, %class.svector, %class.svector, %class.svector.45, i8, i8, i32, i32, %class.svector, %class.svector, %class.rational, %class.rational, i32, %class.rational, %class.svector, i32, %class.svector, %class.svector, %class.rational, %class.rational }
%class.svector.34 = type { %class.vector.35 }
%class.vector.35 = type { ptr }
%class.vector.36 = type { ptr }
%class.ptr_hashtable = type { %class.core_hashtable.base, [4 x i8] }
%class.core_hashtable.base = type <{ ptr, i32, i32, i32 }>
%class.hashtable = type { %class.core_hashtable.base.38, [4 x i8] }
%class.core_hashtable.base.38 = type <{ ptr, i32, i32, i32 }>
%class.hashtable.39 = type { %class.core_hashtable.base.41, [4 x i8] }
%class.core_hashtable.base.41 = type <{ ptr, i32, i32, i32 }>
%class.map = type { %class.table2map }
%class.table2map = type { %class.core_hashtable.43 }
%class.core_hashtable.43 = type <{ ptr, i32, i32, i32, [4 x i8] }>
%class.svector.45 = type { %class.vector.46 }
%class.vector.46 = type { ptr }
%"class.dd::solver" = type { ptr, ptr, ptr, %"class.dd::solver::stats", %"struct.dd::solver::config", %"class.std::function.47", %class.ptr_vector.50, %class.ptr_vector.50, %class.ptr_vector.50, %class.vector.52, %class.ptr_vector.50, ptr, i8, i32, %class.svector, %class.svector }
%"class.dd::solver::stats" = type <{ i32, [4 x i8], double, i32, i32, i32, [4 x i8] }>
%"struct.dd::solver::config" = type { i32, i32, i32, i32, i32, i32, i8, i32, i32, i32, i32 }
%"class.std::function.47" = type { %"class.std::_Function_base", ptr }
%class.vector.52 = type { ptr }
%class.ptr_vector.50 = type { %class.vector.51 }
%class.vector.51 = type { ptr }
%"class.std::unordered_map.53" = type { %"class.std::_Hashtable.54" }
%"class.std::_Hashtable.54" = type { ptr, i64, %"struct.std::__detail::_Hash_node_base", i64, %"struct.std::__detail::_Prime_rehash_policy", ptr }
%"class.nla::emonics" = type { %class.trail_stack, %class.union_find.71, %class.svector, ptr, %class.vector.72, %class.svector, i32, %class.svector.73, %"struct.nla::emonics::hash_canonical", %"struct.nla::emonics::eq_canonical", %class.map.75 }
%class.union_find.71 = type { ptr, ptr, %class.svector, %class.svector, %class.svector, %"class.union_find<nla::emonics>::mk_var_trail" }
%"class.union_find<nla::emonics>::mk_var_trail" = type { %class.trail, ptr }
%class.vector.72 = type { ptr }
%class.svector.73 = type { %class.vector.74 }
%class.vector.74 = type { ptr }
%"struct.nla::emonics::hash_canonical" = type { ptr }
%"struct.nla::emonics::eq_canonical" = type { ptr }
%class.map.75 = type { %class.table2map.76 }
%class.table2map.76 = type { %class.core_hashtable.77 }
%class.core_hashtable.77 = type <{ %"struct.table2map<default_map_entry<unsigned int, svector<unsigned int>>, nla::emonics::hash_canonical, nla::emonics::eq_canonical>::entry_hash_proc", %"struct.table2map<default_map_entry<unsigned int, svector<unsigned int>>, nla::emonics::hash_canonical, nla::emonics::eq_canonical>::entry_eq_proc", ptr, i32, i32, i32, [4 x i8] }>
%"struct.table2map<default_map_entry<unsigned int, svector<unsigned int>>, nla::emonics::hash_canonical, nla::emonics::eq_canonical>::entry_hash_proc" = type { %"struct.nla::emonics::hash_canonical" }
%"struct.table2map<default_map_entry<unsigned int, svector<unsigned int>>, nla::emonics::hash_canonical, nla::emonics::eq_canonical>::entry_eq_proc" = type { %"struct.nla::emonics::eq_canonical" }
%class.svector = type { %class.vector }
%class.vector = type { ptr }
%class.indexed_uint_set = type { i32, %class.svector, %class.svector }
%class.reslimit = type { %"struct.std::atomic", i8, i64, i64, %class.svector.79, %class.ptr_vector.81 }
%"struct.std::atomic" = type { %"struct.std::__atomic_base" }
%"struct.std::__atomic_base" = type { i32 }
%class.svector.79 = type { %class.vector.80 }
%class.vector.80 = type { ptr }
%class.ptr_vector.81 = type { %class.vector.82 }
%class.vector.82 = type { ptr }
%"class.nra::solver" = type { ptr }
%"struct.std::pair" = type <{ %class.rational, i32, [4 x i8] }>

@_ZN8rational13g_mpq_managerE = external global ptr, align 8

; Function Attrs: mustprogress nounwind uwtable
define linkonce_odr hidden void @_ZN3mpzC2Ei(ptr noundef nonnull align 8 dereferenceable(16) %this, i32 noundef %v) unnamed_addr #4 comdat align 2 {
entry:
  %this.addr = alloca ptr, align 8
  %v.addr = alloca i32, align 4
  store ptr %this, ptr %this.addr, align 8
  store i32 %v, ptr %v.addr, align 4
  %this1 = load ptr, ptr %this.addr, align 8
  %m_val = getelementptr inbounds %class.mpz, ptr %this1, i32 0, i32 0
  %0 = load i32, ptr %v.addr, align 4
  store i32 %0, ptr %m_val, align 8
  %m_kind = getelementptr inbounds %class.mpz, ptr %this1, i32 0, i32 1
  %bf.load = load i8, ptr %m_kind, align 4
  %bf.clear = and i8 %bf.load, -2
  %bf.set = or i8 %bf.clear, 0
  store i8 %bf.set, ptr %m_kind, align 4
  %m_owner = getelementptr inbounds %class.mpz, ptr %this1, i32 0, i32 1
  %bf.load2 = load i8, ptr %m_owner, align 4
  %bf.clear3 = and i8 %bf.load2, -3
  %bf.set4 = or i8 %bf.clear3, 0
  store i8 %bf.set4, ptr %m_owner, align 4
  %m_ptr = getelementptr inbounds %class.mpz, ptr %this1, i32 0, i32 2
  store ptr null, ptr %m_ptr, align 8
  ret void
}

; Function Attrs: mustprogress nounwind uwtable
define linkonce_odr hidden void @_ZN3mpzC2Ev(ptr noundef nonnull align 8 dereferenceable(16) %this) unnamed_addr #4 comdat align 2 {
entry:
  %this.addr = alloca ptr, align 8
  store ptr %this, ptr %this.addr, align 8
  %this1 = load ptr, ptr %this.addr, align 8
  %m_val = getelementptr inbounds %class.mpz, ptr %this1, i32 0, i32 0
  store i32 0, ptr %m_val, align 8
  %m_kind = getelementptr inbounds %class.mpz, ptr %this1, i32 0, i32 1
  %bf.load = load i8, ptr %m_kind, align 4
  %bf.clear = and i8 %bf.load, -2
  %bf.set = or i8 %bf.clear, 0
  store i8 %bf.set, ptr %m_kind, align 4
  %m_owner = getelementptr inbounds %class.mpz, ptr %this1, i32 0, i32 1
  %bf.load2 = load i8, ptr %m_owner, align 4
  %bf.clear3 = and i8 %bf.load2, -3
  %bf.set4 = or i8 %bf.clear3, 0
  store i8 %bf.set4, ptr %m_owner, align 4
  %m_ptr = getelementptr inbounds %class.mpz, ptr %this1, i32 0, i32 2
  store ptr null, ptr %m_ptr, align 8
  ret void
}

; Function Attrs: mustprogress uwtable
define linkonce_odr hidden void @_ZN3mpqC2Ev(ptr noundef nonnull align 8 dereferenceable(32) %this) unnamed_addr #5 comdat align 2 {
entry:
  %this.addr = alloca ptr, align 8
  store ptr %this, ptr %this.addr, align 8
  %this1 = load ptr, ptr %this.addr, align 8
  %m_num = getelementptr inbounds %class.mpq, ptr %this1, i32 0, i32 0
  call void @_ZN3mpzC2Ev(ptr noundef nonnull align 8 dereferenceable(16) %m_num)
  %m_den = getelementptr inbounds %class.mpq, ptr %this1, i32 0, i32 1
  call void @_ZN3mpzC2Ei(ptr noundef nonnull align 8 dereferenceable(16) %m_den, i32 noundef 1)
  ret void
}

; Function Attrs: mustprogress nounwind uwtable
define linkonce_odr hidden noundef nonnull align 8 dereferenceable(728) ptr @_ZN8rational1mEv() #4 comdat align 2 {
entry:
  %0 = load ptr, ptr @_ZN8rational13g_mpq_managerE, align 8
  ret ptr %0
}

; Function Attrs: mustprogress uwtable
define linkonce_odr hidden void @_ZN8rationalC2Ev(ptr noundef nonnull align 8 dereferenceable(32) %this) unnamed_addr #5 comdat align 2 {
entry:
  %this.addr = alloca ptr, align 8
  store ptr %this, ptr %this.addr, align 8
  %this1 = load ptr, ptr %this.addr, align 8
  %m_val = getelementptr inbounds %class.rational, ptr %this1, i32 0, i32 0
  call void @_ZN3mpqC2Ev(ptr noundef nonnull align 8 dereferenceable(32) %m_val)
  ret void
}

; Function Attrs: mustprogress uwtable
define linkonce_odr hidden noundef nonnull align 8 dereferenceable(32) ptr @_ZN8rationaldVERKS_(ptr noundef nonnull align 8 dereferenceable(32) %this, ptr noundef nonnull align 8 dereferenceable(32) %r) #5 comdat align 2 {
entry:
  %this.addr = alloca ptr, align 8
  %r.addr = alloca ptr, align 8
  store ptr %this, ptr %this.addr, align 8
  store ptr %r, ptr %r.addr, align 8
  %this1 = load ptr, ptr %this.addr, align 8
  %call = call noundef nonnull align 8 dereferenceable(728) ptr @_ZN8rational1mEv()
  %m_val = getelementptr inbounds %class.rational, ptr %this1, i32 0, i32 0
  %0 = load ptr, ptr %r.addr, align 8
  %m_val2 = getelementptr inbounds %class.rational, ptr %0, i32 0, i32 0
  %m_val3 = getelementptr inbounds %class.rational, ptr %this1, i32 0, i32 0
  call void @_ZN11mpq_managerILb1EE3divERK3mpqS3_RS1_(ptr noundef nonnull align 8 dereferenceable(728) %call, ptr noundef nonnull align 8 dereferenceable(32) %m_val, ptr noundef nonnull align 8 dereferenceable(32) %m_val2, ptr noundef nonnull align 8 dereferenceable(32) %m_val3)
  ret ptr %this1
}

; Function Attrs: mustprogress uwtable
define linkonce_odr hidden void @_ZNSt4pairI8rationaljEC2IS0_jTnNSt9enable_ifIXsr6__and_ISt37__is_implicitly_default_constructibleIT_ES4_IT0_EEE5valueEbE4typeELb1EEEv(ptr noundef nonnull align 8 dereferenceable(36) %this) unnamed_addr #5 comdat align 2 {
entry:
  %this.addr = alloca ptr, align 8
  store ptr %this, ptr %this.addr, align 8
  %this1 = load ptr, ptr %this.addr, align 8
  %first = getelementptr inbounds %"struct.std::pair", ptr %this1, i32 0, i32 0
  call void @_ZN8rationalC2Ev(ptr noundef nonnull align 8 dereferenceable(32) %first)
  %second = getelementptr inbounds %"struct.std::pair", ptr %this1, i32 0, i32 1
  store i32 0, ptr %second, align 8
  ret void
}

; Function Attrs: mustprogress uwtable
define hidden noundef i32 @_ZNK3nla9intervals16find_term_columnERKN2lp8lar_termER8rational(ptr noundef nonnull align 8 dereferenceable(1432) %this, ptr noundef nonnull align 8 dereferenceable(24) %norm_t, ptr noundef nonnull align 8 dereferenceable(32) %a) #5 align 2 personality ptr @__gxx_personality_v0 {
entry:
  %retval = alloca i32, align 4
  %this.addr = alloca ptr, align 8
  %norm_t.addr = alloca ptr, align 8
  %a.addr = alloca ptr, align 8
  %a_j = alloca %"struct.std::pair", align 8
  %exn.slot = alloca ptr, align 8
  %ehselector.slot = alloca i32, align 4
  %cleanup.dest.slot = alloca i32, align 4
  store ptr %this, ptr %this.addr, align 8
  store ptr %norm_t, ptr %norm_t.addr, align 8
  store ptr %a, ptr %a.addr, align 8
  %this1 = load ptr, ptr %this.addr, align 8
  call void @_ZNSt4pairI8rationaljEC2IS0_jTnNSt9enable_ifIXsr6__and_ISt37__is_implicitly_default_constructibleIT_ES4_IT0_EEE5valueEbE4typeELb1EEEv(ptr noundef nonnull align 8 dereferenceable(36) %a_j)
  %m_core = getelementptr inbounds %"class.nla::intervals", ptr %this1, i32 0, i32 1
  %0 = load ptr, ptr %m_core, align 8
  %lra = getelementptr inbounds %"class.nla::core", ptr %0, i32 0, i32 3
  %1 = load ptr, ptr %lra, align 8
  %2 = load ptr, ptr %norm_t.addr, align 8
  %call = invoke noundef zeroext i1 @_ZNK2lp10lar_solver28fetch_normalized_term_columnERKNS_8lar_termERSt4pairI8rationaljE(ptr noundef nonnull align 8 dereferenceable(1888) %1, ptr noundef nonnull align 8 dereferenceable(24) %2, ptr noundef nonnull align 8 dereferenceable(36) %a_j)
          to label %invoke.cont unwind label %lpad

invoke.cont:                                      ; preds = %entry
  br i1 %call, label %if.then, label %if.end

if.then:                                          ; preds = %invoke.cont
  %first = getelementptr inbounds %"struct.std::pair", ptr %a_j, i32 0, i32 0
  %3 = load ptr, ptr %a.addr, align 8
  %call3 = invoke noundef nonnull align 8 dereferenceable(32) ptr @_ZN8rationaldVERKS_(ptr noundef nonnull align 8 dereferenceable(32) %3, ptr noundef nonnull align 8 dereferenceable(32) %first)
          to label %invoke.cont2 unwind label %lpad

invoke.cont2:                                     ; preds = %if.then
  %second = getelementptr inbounds %"struct.std::pair", ptr %a_j, i32 0, i32 1
  %4 = load i32, ptr %second, align 8
  store i32 %4, ptr %retval, align 4
  store i32 1, ptr %cleanup.dest.slot, align 4
  br label %cleanup

lpad:                                             ; preds = %if.then, %entry
  %5 = landingpad { ptr, i32 }
          cleanup
  %6 = extractvalue { ptr, i32 } %5, 0
  store ptr %6, ptr %exn.slot, align 8
  %7 = extractvalue { ptr, i32 } %5, 1
  store i32 %7, ptr %ehselector.slot, align 4
  call void @_ZNSt4pairI8rationaljED2Ev(ptr noundef nonnull align 8 dereferenceable(36) %a_j) #3
  br label %eh.resume

if.end:                                           ; preds = %invoke.cont
  store i32 -1, ptr %retval, align 4
  store i32 1, ptr %cleanup.dest.slot, align 4
  br label %cleanup

cleanup:                                          ; preds = %if.end, %invoke.cont2
  call void @_ZNSt4pairI8rationaljED2Ev(ptr noundef nonnull align 8 dereferenceable(36) %a_j) #3
  %8 = load i32, ptr %retval, align 4
  ret i32 %8

eh.resume:                                        ; preds = %lpad
  %exn = load ptr, ptr %exn.slot, align 8
  %sel = load i32, ptr %ehselector.slot, align 4
  %lpad.val = insertvalue { ptr, i32 } poison, ptr %exn, 0
  %lpad.val4 = insertvalue { ptr, i32 } %lpad.val, i32 %sel, 1
  resume { ptr, i32 } %lpad.val4
}