; Function Attrs: mustprogress uwtable
define hidden noundef i32 @_ZNK3nla9intervals16find_term_columnERKN2lp8lar_termER8rational(ptr nocapture noundef nonnull readonly align 8 dereferenceable(1432) %this, ptr noundef nonnull align 8 dereferenceable(24) %norm_t, ptr noundef nonnull align 8 dereferenceable(32) %a) local_unnamed_addr #3 align 2 personality ptr @__gxx_personality_v0 {
entry:
  %a_j = alloca %"struct.std::pair", align 8
  store i32 0, ptr %a_j, align 8
  %m_kind.i.i.i.i = getelementptr inbounds i8, ptr %a_j, i64 4
  store i8 0, ptr %m_kind.i.i.i.i, align 4
  %m_ptr.i.i.i.i = getelementptr inbounds i8, ptr %a_j, i64 8
  store ptr null, ptr %m_ptr.i.i.i.i, align 8
  %m_den.i.i.i = getelementptr inbounds i8, ptr %a_j, i64 16
  store i32 1, ptr %m_den.i.i.i, align 8
  %m_kind.i1.i.i.i = getelementptr inbounds i8, ptr %a_j, i64 20
  store i8 0, ptr %m_kind.i1.i.i.i, align 4
  %m_ptr.i4.i.i.i = getelementptr inbounds i8, ptr %a_j, i64 24
  store ptr null, ptr %m_ptr.i4.i.i.i, align 8
  %second.i = getelementptr inbounds i8, ptr %a_j, i64 32
  store i32 0, ptr %second.i, align 8
  %m_core = getelementptr inbounds i8, ptr %this, i64 1424
  %0 = load ptr, ptr %m_core, align 8
  %lra = getelementptr inbounds i8, ptr %0, i64 192
  %1 = load ptr, ptr %lra, align 8
  %call = invoke noundef zeroext i1 @_ZNK2lp10lar_solver28fetch_normalized_term_columnERKNS_8lar_termERSt4pairI8rationaljE(ptr noundef nonnull align 8 dereferenceable(1888) %1, ptr noundef nonnull align 8 dereferenceable(24) %norm_t, ptr noundef nonnull align 8 dereferenceable(36) %a_j)
          to label %invoke.cont unwind label %lpad

invoke.cont:                                      ; preds = %entry
  br i1 %call, label %if.then, label %cleanup

if.then:                                          ; preds = %invoke.cont
  %2 = load ptr, ptr @_ZN8rational13g_mpq_managerE, align 8
  invoke void @_ZN11mpq_managerILb1EE3divERK3mpqS3_RS1_(ptr noundef nonnull align 8 dereferenceable(728) %2, ptr noundef nonnull align 8 dereferenceable(32) %a, ptr noundef nonnull align 8 dereferenceable(32) %a_j, ptr noundef nonnull align 8 dereferenceable(32) %a)
          to label %invoke.cont2 unwind label %lpad

invoke.cont2:                                     ; preds = %if.then
  %3 = load i32, ptr %second.i, align 8
  br label %cleanup

lpad:                                             ; preds = %if.then, %entry
  %4 = landingpad { ptr, i32 }
          cleanup
  call void @_ZNSt4pairI8rationaljED2Ev(ptr noundef nonnull align 8 dereferenceable(36) %a_j) #17
  resume { ptr, i32 } %4

cleanup:                                          ; preds = %invoke.cont, %invoke.cont2
  %retval.0 = phi i32 [ %3, %invoke.cont2 ], [ -1, %invoke.cont ]
  %5 = load ptr, ptr @_ZN8rational13g_mpq_managerE, align 8
  invoke void @_ZN11mpz_managerILb1EE3delEPS0_R3mpz(ptr noundef %5, ptr noundef nonnull align 8 dereferenceable(16) %a_j)
          to label %.noexc.i.i unwind label %terminate.lpad.i.i

.noexc.i.i:                                       ; preds = %cleanup
  invoke void @_ZN11mpz_managerILb1EE3delEPS0_R3mpz(ptr noundef %5, ptr noundef nonnull align 8 dereferenceable(16) %m_den.i.i.i)
          to label %_ZNSt4pairI8rationaljED2Ev.exit unwind label %terminate.lpad.i.i

terminate.lpad.i.i:                               ; preds = %.noexc.i.i, %cleanup
  %6 = landingpad { ptr, i32 }
          catch ptr null
  %7 = extractvalue { ptr, i32 } %6, 0
  call void @__clang_call_terminate(ptr %7) #18
  unreachable

_ZNSt4pairI8rationaljED2Ev.exit:                  ; preds = %.noexc.i.i
  ret i32 %retval.0
}